target datalayout = "e-m:e-p270:32:32-p271:32:32-p272:64:64-i64:64-i128:128-f80:128-n8:16:32:64-S128"
target triple = "x86_64-pc-linux-gnu"

%struct.PrintfTarget = type { ptr, ptr, ptr, ptr, i32, i8 }

; Function Attrs: nounwind uwtable
define i32 @pg_vsprintf(ptr noundef %0, ptr noundef %1, ptr noundef %2) #0 {
  %4 = alloca ptr, align 8
  %5 = alloca ptr, align 8
  %6 = alloca ptr, align 8
  %7 = alloca %struct.PrintfTarget, align 8
  store ptr %0, ptr %4, align 8
  store ptr %1, ptr %5, align 8
  store ptr %2, ptr %6, align 8
  call void @llvm.lifetime.start.p0(i64 40, ptr %7) #10
  %8 = load ptr, ptr %4, align 8
  %9 = getelementptr inbounds nuw %struct.PrintfTarget, ptr %7, i32 0, i32 0
  store ptr %8, ptr %9, align 8
  %10 = getelementptr inbounds nuw %struct.PrintfTarget, ptr %7, i32 0, i32 1
  store ptr %8, ptr %10, align 8
  %11 = getelementptr inbounds nuw %struct.PrintfTarget, ptr %7, i32 0, i32 2
  store ptr null, ptr %11, align 8
  %12 = getelementptr inbounds nuw %struct.PrintfTarget, ptr %7, i32 0, i32 3
  store ptr null, ptr %12, align 8
  %13 = getelementptr inbounds nuw %struct.PrintfTarget, ptr %7, i32 0, i32 4
  store i32 0, ptr %13, align 8
  %14 = getelementptr inbounds nuw %struct.PrintfTarget, ptr %7, i32 0, i32 5
  store i8 0, ptr %14, align 4
  %15 = load ptr, ptr %5, align 8
  %16 = load ptr, ptr %6, align 8
  call void @dopr(ptr noundef %7, ptr noundef %15, ptr noundef %16)
  %17 = getelementptr inbounds nuw %struct.PrintfTarget, ptr %7, i32 0, i32 0
  %18 = load ptr, ptr %17, align 8
  store i8 0, ptr %18, align 1
  %19 = getelementptr inbounds nuw %struct.PrintfTarget, ptr %7, i32 0, i32 5
  %20 = load i8, ptr %19, align 4, !range !3, !noundef !4
  %21 = trunc i8 %20 to i1
  br i1 %21, label %22, label %23

22:                                               ; preds = %3
  br label %35

23:                                               ; preds = %3
  %24 = getelementptr inbounds nuw %struct.PrintfTarget, ptr %7, i32 0, i32 0
  %25 = load ptr, ptr %24, align 8
  %26 = getelementptr inbounds nuw %struct.PrintfTarget, ptr %7, i32 0, i32 1
  %27 = load ptr, ptr %26, align 8
  %28 = ptrtoint ptr %25 to i64
  %29 = ptrtoint ptr %27 to i64
  %30 = sub i64 %28, %29
  %31 = getelementptr inbounds nuw %struct.PrintfTarget, ptr %7, i32 0, i32 4
  %32 = load i32, ptr %31, align 8
  %33 = sext i32 %32 to i64
  %34 = add i64 %30, %33
  br label %35

35:                                               ; preds = %23, %22
  %36 = phi i64 [ -1, %22 ], [ %34, %23 ]
  %37 = trunc i64 %36 to i32
  call void @llvm.lifetime.end.p0(i64 40, ptr %7) #10
  ret i32 %37
}